; Function Attrs: mustprogress uwtable
define hidden void @_ZN5model16reset_eval_cacheEv(ptr noundef nonnull align 8 dereferenceable(160) %this) local_unnamed_addr #3 align 2 personality ptr @__gxx_personality_v0 {
entry:
  %ref.tmp = alloca %class.params_ref, align 8
  %m_mev = getelementptr inbounds i8, ptr %this, i64 128
  store ptr null, ptr %ref.tmp, align 8
  invoke void @_ZN15model_evaluator5resetERK10params_ref(ptr noundef nonnull align 8 dereferenceable(8) %m_mev, ptr noundef nonnull align 8 dereferenceable(8) %ref.tmp)
          to label %invoke.cont unwind label %lpad

invoke.cont:                                      ; preds = %entry
  call void @_ZN10params_refD1Ev(ptr noundef nonnull align 8 dereferenceable(8) %ref.tmp) #19
  ret void

lpad:                                             ; preds = %entry
  %0 = landingpad { ptr, i32 }
          cleanup
  call void @_ZN10params_refD1Ev(ptr noundef nonnull align 8 dereferenceable(8) %ref.tmp) #19
  resume { ptr, i32 } %0
}